target datalayout = "e-m:e-p270:32:32-p271:32:32-p272:64:64-i64:64-i128:128-f80:128-n8:16:32:64-S128"
target triple = "x86_64-unknown-linux-gnu"

%struct.QIOChannelTLS = type { %struct.QIOChannel, ptr, ptr, i32, i32 }
%struct.QIOChannel = type { %struct.Object, i32, ptr, ptr, ptr, ptr, ptr, i8 }
%struct.Object = type { ptr, ptr, ptr, i32, ptr }

@.str = private unnamed_addr constant [16 x i8] c"qio-channel-tls\00", align 1
@.str.1 = private unnamed_addr constant [103 x i8] c"/home/dtcxzyw/WorkSpace/Projects/compilers/llvm-opt-benchmark/bench/qemu/qemu/include/io/channel-tls.h\00", align 1
@__func__.QIO_CHANNEL_TLS = private unnamed_addr constant [16 x i8] c"QIO_CHANNEL_TLS\00", align 1

; Function Attrs: nounwind sspstrong uwtable
define internal ptr @QIO_CHANNEL_TLS(ptr noundef %obj) #0 {
entry:
  %obj.addr = alloca ptr, align 8
  store ptr %obj, ptr %obj.addr, align 8
  %0 = load ptr, ptr %obj.addr, align 8
  %call = call ptr @object_dynamic_cast_assert(ptr noundef %0, ptr noundef @.str, ptr noundef @.str.1, i32 noundef 30, ptr noundef @__func__.QIO_CHANNEL_TLS)
  ret ptr %call
}

; Function Attrs: nounwind sspstrong uwtable
define internal i64 @qio_channel_tls_write_handler(ptr noundef %buf, i64 noundef %len, ptr noundef %opaque) #0 {
entry:
  %retval = alloca i64, align 8
  %buf.addr = alloca ptr, align 8
  %len.addr = alloca i64, align 8
  %opaque.addr = alloca ptr, align 8
  %tioc = alloca ptr, align 8
  %ret = alloca i64, align 8
  store ptr %buf, ptr %buf.addr, align 8
  store i64 %len, ptr %len.addr, align 8
  store ptr %opaque, ptr %opaque.addr, align 8
  %0 = load ptr, ptr %opaque.addr, align 8
  %call = call ptr @QIO_CHANNEL_TLS(ptr noundef %0)
  store ptr %call, ptr %tioc, align 8
  %1 = load ptr, ptr %tioc, align 8
  %master = getelementptr inbounds %struct.QIOChannelTLS, ptr %1, i32 0, i32 1
  %2 = load ptr, ptr %master, align 8
  %3 = load ptr, ptr %buf.addr, align 8
  %4 = load i64, ptr %len.addr, align 8
  %call1 = call i64 @qio_channel_write(ptr noundef %2, ptr noundef %3, i64 noundef %4, ptr noundef null)
  store i64 %call1, ptr %ret, align 8
  %5 = load i64, ptr %ret, align 8
  %cmp = icmp eq i64 %5, -2
  br i1 %cmp, label %if.then, label %if.else

if.then:                                          ; preds = %entry
  %call2 = call ptr @__errno_location() #6
  store i32 11, ptr %call2, align 4
  store i64 -1, ptr %retval, align 8
  br label %return

if.else:                                          ; preds = %entry
  %6 = load i64, ptr %ret, align 8
  %cmp3 = icmp slt i64 %6, 0
  br i1 %cmp3, label %if.then4, label %if.end

if.then4:                                         ; preds = %if.else
  %call5 = call ptr @__errno_location() #6
  store i32 5, ptr %call5, align 4
  store i64 -1, ptr %retval, align 8
  br label %return

if.end:                                           ; preds = %if.else
  br label %if.end6

if.end6:                                          ; preds = %if.end
  %7 = load i64, ptr %ret, align 8
  store i64 %7, ptr %retval, align 8
  br label %return

return:                                           ; preds = %if.end6, %if.then4, %if.then
  %8 = load i64, ptr %retval, align 8
  ret i64 %8
}