; Function Attrs: nounwind sspstrong uwtable
define internal range(i64 -1, -9223372036854775808) i64 @qio_channel_tls_write_handler(ptr noundef %buf, i64 noundef %len, ptr noundef %opaque) #0 {
entry:
  %call.i = tail call ptr @object_dynamic_cast_assert(ptr noundef %opaque, ptr noundef nonnull @.str, ptr noundef nonnull @.str.1, i32 noundef 30, ptr noundef nonnull @__func__.QIO_CHANNEL_TLS) #8
  %master = getelementptr inbounds nuw i8, ptr %call.i, i64 96
  %0 = load ptr, ptr %master, align 8
  %call1 = tail call i64 @qio_channel_write(ptr noundef %0, ptr noundef %buf, i64 noundef %len, ptr noundef null) #8
  %cmp = icmp eq i64 %call1, -2
  br i1 %cmp, label %return.sink.split, label %if.else

if.else:                                          ; preds = %entry
  %cmp3 = icmp slt i64 %call1, 0
  br i1 %cmp3, label %return.sink.split, label %return

return.sink.split:                                ; preds = %if.else, %entry
  %.sink = phi i32 [ 11, %entry ], [ 5, %if.else ]
  %call5 = tail call ptr @__errno_location() #9
  store i32 %.sink, ptr %call5, align 4
  br label %return

return:                                           ; preds = %return.sink.split, %if.else
  %retval.0 = phi i64 [ %call1, %if.else ], [ -1, %return.sink.split ]
  ret i64 %retval.0
}